; ModuleID = '25/830.cpp'
source_filename = "25/830.cpp"
target datalayout = "e-m:e-p270:32:32-p271:32:32-p272:64:64-i64:64-f80:128-n8:16:32:64-S128"
target triple = "x86_64-pc-linux-gnu"

%"class.std::ios_base::Init" = type { i8 }
%"class.std::basic_ostream" = type { i32 (...)**, %"class.std::basic_ios" }
%"class.std::basic_ios" = type { %"class.std::ios_base", %"class.std::basic_ostream"*, i8, i8, %"class.std::basic_streambuf"*, %"class.std::ctype"*, %"class.std::num_put"*, %"class.std::num_get"* }
%"class.std::ios_base" = type { i32 (...)**, i64, i64, i32, i32, i32, %"struct.std::ios_base::_Callback_list"*, %"struct.std::ios_base::_Words", [8 x %"struct.std::ios_base::_Words"], i32, %"struct.std::ios_base::_Words"*, %"class.std::locale" }
%"struct.std::ios_base::_Callback_list" = type { %"struct.std::ios_base::_Callback_list"*, void (i32, %"class.std::ios_base"*, i32)*, i32, i32 }
%"struct.std::ios_base::_Words" = type { i8*, i64 }
%"class.std::locale" = type { %"class.std::locale::_Impl"* }
%"class.std::locale::_Impl" = type { i32, %"class.std::locale::facet"**, i64, %"class.std::locale::facet"**, i8** }
%"class.std::locale::facet" = type <{ i32 (...)**, i32, [4 x i8] }>
%"class.std::basic_streambuf" = type { i32 (...)**, i8*, i8*, i8*, i8*, i8*, i8*, %"class.std::locale" }
%"class.std::ctype" = type <{ %"class.std::locale::facet.base", [4 x i8], %struct.__locale_struct*, i8, [7 x i8], i32*, i32*, i16*, i8, [256 x i8], [256 x i8], i8, [6 x i8] }>
%"class.std::locale::facet.base" = type <{ i32 (...)**, i32 }>
%struct.__locale_struct = type { [13 x %struct.__locale_data*], i16*, i32*, i32*, [13 x i8*] }
%struct.__locale_data = type opaque
%"class.std::num_put" = type { %"class.std::locale::facet.base", [4 x i8] }
%"class.std::num_get" = type { %"class.std::locale::facet.base", [4 x i8] }
%"class.std::basic_istream" = type { i32 (...)**, i64, %"class.std::basic_ios" }

@_ZStL8__ioinit = internal global %"class.std::ios_base::Init" zeroinitializer, align 1
@__dso_handle = external hidden global i8
@a = dso_local global [100 x i8] zeroinitializer, align 16
@b = dso_local global [100 x i32] zeroinitializer, align 16
@_ZSt4cout = external dso_local global %"class.std::basic_ostream", align 8
@_ZSt3cin = external dso_local global %"class.std::basic_istream", align 8
@llvm.global_ctors = appending global [1 x { i32, void ()*, i8* }] [{ i32, void ()*, i8* } { i32 65535, void ()* @_GLOBAL__sub_I_830.cpp, i8* null }]

; Function Attrs: noinline uwtable
define internal void @__cxx_global_var_init() #0 section ".text.startup" {
  call void @_ZNSt8ios_base4InitC1Ev(%"class.std::ios_base::Init"* @_ZStL8__ioinit)
  %1 = call i32 @__cxa_atexit(void (i8*)* bitcast (void (%"class.std::ios_base::Init"*)* @_ZNSt8ios_base4InitD1Ev to void (i8*)*), i8* getelementptr inbounds (%"class.std::ios_base::Init", %"class.std::ios_base::Init"* @_ZStL8__ioinit, i32 0, i32 0), i8* @__dso_handle) #3
  ret void
}

declare dso_local void @_ZNSt8ios_base4InitC1Ev(%"class.std::ios_base::Init"*) unnamed_addr #1

; Function Attrs: nounwind
declare dso_local void @_ZNSt8ios_base4InitD1Ev(%"class.std::ios_base::Init"*) unnamed_addr #2

; Function Attrs: nounwind
declare dso_local i32 @__cxa_atexit(void (i8*)*, i8*, i8*) #3

; Function Attrs: noinline uwtable
define dso_local void @_Z1fi(i32 %0) #0 {
  %2 = alloca i32, align 4
  %3 = alloca i32, align 4
  %4 = alloca i32, align 4
  store i32 %0, i32* %2, align 4
  %5 = load i32, i32* %2, align 4
  %6 = icmp eq i32 %5, 0
  br i1 %6, label %7, label %8

7:                                                ; preds = %1
  store i8 49, i8* getelementptr inbounds ([100 x i8], [100 x i8]* @a, i64 1, i64 0), align 4
  br label %72

8:                                                ; preds = %1
  store i8 49, i8* getelementptr inbounds ([100 x i8], [100 x i8]* @a, i64 1, i64 0), align 4
  %9 = load i32, i32* %2, align 4
  store i32 %9, i32* %3, align 4
  br label %10

10:                                               ; preds = %68, %8
  %11 = load i32, i32* %3, align 4
  %12 = icmp sge i32 %11, 1
  br i1 %12, label %13, label %71

13:                                               ; preds = %10
  store i32 100, i32* %4, align 4
  br label %14

14:                                               ; preds = %64, %13
  %15 = load i32, i32* %4, align 4
  %16 = icmp sge i32 %15, 0
  br i1 %16, label %17, label %67

17:                                               ; preds = %14
  %18 = load i32, i32* %4, align 4
  %19 = sext i32 %18 to i64
  %20 = getelementptr inbounds [100 x i8], [100 x i8]* @a, i64 0, i64 %19
  %21 = load i8, i8* %20, align 1
  %22 = sext i8 %21 to i32
  %23 = sub nsw i32 %22, 48
  %24 = mul nsw i32 %23, 2
  %25 = add nsw i32 %24, 48
  %26 = trunc i32 %25 to i8
  %27 = load i32, i32* %4, align 4
  %28 = sext i32 %27 to i64
  %29 = getelementptr inbounds [100 x i8], [100 x i8]* @a, i64 0, i64 %28
  store i8 %26, i8* %29, align 1
  %30 = load i32, i32* %4, align 4
  %31 = sext i32 %30 to i64
  %32 = getelementptr inbounds [100 x i32], [100 x i32]* @b, i64 0, i64 %31
  %33 = load i32, i32* %32, align 4
  %34 = icmp eq i32 %33, 1
  br i1 %34, label %35, label %41

35:                                               ; preds = %17
  %36 = load i32, i32* %4, align 4
  %37 = sext i32 %36 to i64
  %38 = getelementptr inbounds [100 x i8], [100 x i8]* @a, i64 0, i64 %37
  %39 = load i8, i8* %38, align 1
  %40 = add i8 %39, 1
  store i8 %40, i8* %38, align 1
  br label %41

41:                                               ; preds = %35, %17
  %42 = load i32, i32* %4, align 4
  %43 = sext i32 %42 to i64
  %44 = getelementptr inbounds [100 x i8], [100 x i8]* @a, i64 0, i64 %43
  %45 = load i8, i8* %44, align 1
  %46 = sext i8 %45 to i32
  %47 = sub nsw i32 %46, 10
  %48 = icmp sge i32 %47, 48
  br i1 %48, label %49, label %63

49:                                               ; preds = %41
  %50 = load i32, i32* %4, align 4
  %51 = sext i32 %50 to i64
  %52 = getelementptr inbounds [100 x i8], [100 x i8]* @a, i64 0, i64 %51
  %53 = load i8, i8* %52, align 1
  %54 = sext i8 %53 to i32
  %55 = sub nsw i32 %54, 10
  %56 = trunc i32 %55 to i8
  store i8 %56, i8* %52, align 1
  %57 = load i32, i32* %4, align 4
  %58 = sub nsw i32 %57, 1
  %59 = sext i32 %58 to i64
  %60 = getelementptr inbounds [100 x i32], [100 x i32]* @b, i64 0, i64 %59
  %61 = load i32, i32* %60, align 4
  %62 = add nsw i32 %61, 1
  store i32 %62, i32* %60, align 4
  br label %63

63:                                               ; preds = %49, %41
  br label %64

64:                                               ; preds = %63
  %65 = load i32, i32* %4, align 4
  %66 = add nsw i32 %65, -1
  store i32 %66, i32* %4, align 4
  br label %14

67:                                               ; preds = %14
  call void @llvm.memset.p0i8.i64(i8* align 16 bitcast ([100 x i32]* @b to i8*), i8 0, i64 400, i1 false)
  br label %68

68:                                               ; preds = %67
  %69 = load i32, i32* %3, align 4
  %70 = add nsw i32 %69, -1
  store i32 %70, i32* %3, align 4
  br label %10

71:                                               ; preds = %10
  br label %72

72:                                               ; preds = %71, %7
  store i32 0, i32* %3, align 4
  br label %73

73:                                               ; preds = %100, %72
  %74 = load i32, i32* %3, align 4
  %75 = icmp sle i32 %74, 1000
  br i1 %75, label %76, label %103

76:                                               ; preds = %73
  %77 = load i32, i32* %3, align 4
  %78 = sext i32 %77 to i64
  %79 = getelementptr inbounds [100 x i8], [100 x i8]* @a, i64 0, i64 %78
  %80 = load i8, i8* %79, align 1
  %81 = sext i8 %80 to i32
  %82 = icmp ne i32 %81, 48
  br i1 %82, label %83, label %99

83:                                               ; preds = %76
  %84 = load i32, i32* %3, align 4
  store i32 %84, i32* %4, align 4
  br label %85

85:                                               ; preds = %94, %83
  %86 = load i32, i32* %4, align 4
  %87 = icmp sle i32 %86, 100
  br i1 %87, label %88, label %97

88:                                               ; preds = %85
  %89 = load i32, i32* %4, align 4
  %90 = sext i32 %89 to i64
  %91 = getelementptr inbounds [100 x i8], [100 x i8]* @a, i64 0, i64 %90
  %92 = load i8, i8* %91, align 1
  %93 = call dereferenceable(272) %"class.std::basic_ostream"* @_ZStlsISt11char_traitsIcEERSt13basic_ostreamIcT_ES5_c(%"class.std::basic_ostream"* dereferenceable(272) @_ZSt4cout, i8 signext %92)
  br label %94

94:                                               ; preds = %88
  %95 = load i32, i32* %4, align 4
  %96 = add nsw i32 %95, 1
  store i32 %96, i32* %4, align 4
  br label %85

97:                                               ; preds = %85
  %98 = call dereferenceable(272) %"class.std::basic_ostream"* @_ZNSolsEPFRSoS_E(%"class.std::basic_ostream"* @_ZSt4cout, %"class.std::basic_ostream"* (%"class.std::basic_ostream"*)* @_ZSt4endlIcSt11char_traitsIcEERSt13basic_ostreamIT_T0_ES6_)
  br label %103

99:                                               ; preds = %76
  br label %100

100:                                              ; preds = %99
  %101 = load i32, i32* %3, align 4
  %102 = add nsw i32 %101, 1
  store i32 %102, i32* %3, align 4
  br label %73

103:                                              ; preds = %97, %73
  ret void
}

; Function Attrs: argmemonly nounwind willreturn
declare void @llvm.memset.p0i8.i64(i8* nocapture writeonly, i8, i64, i1 immarg) #4

declare dso_local dereferenceable(272) %"class.std::basic_ostream"* @_ZStlsISt11char_traitsIcEERSt13basic_ostreamIcT_ES5_c(%"class.std::basic_ostream"* dereferenceable(272), i8 signext) #1

declare dso_local dereferenceable(272) %"class.std::basic_ostream"* @_ZNSolsEPFRSoS_E(%"class.std::basic_ostream"*, %"class.std::basic_ostream"* (%"class.std::basic_ostream"*)*) #1

declare dso_local dereferenceable(272) %"class.std::basic_ostream"* @_ZSt4endlIcSt11char_traitsIcEERSt13basic_ostreamIT_T0_ES6_(%"class.std::basic_ostream"* dereferenceable(272)) #1

; Function Attrs: noinline norecurse uwtable
define dso_local i32 @main() #5 {
  %1 = alloca i32, align 4
  %2 = alloca i32, align 4
  store i32 0, i32* %1, align 4
  %3 = call dereferenceable(280) %"class.std::basic_istream"* @_ZNSirsERi(%"class.std::basic_istream"* @_ZSt3cin, i32* dereferenceable(4) %2)
  call void @llvm.memset.p0i8.i64(i8* align 16 getelementptr inbounds ([100 x i8], [100 x i8]* @a, i64 0, i64 0), i8 48, i64 100, i1 false)
  %4 = load i32, i32* %2, align 4
  call void @_Z1fi(i32 %4)
  ret i32 0
}

declare dso_local dereferenceable(280) %"class.std::basic_istream"* @_ZNSirsERi(%"class.std::basic_istream"*, i32* dereferenceable(4)) #1

; Function Attrs: noinline uwtable
define internal void @_GLOBAL__sub_I_830.cpp() #0 section ".text.startup" {
  call void @__cxx_global_var_init()
  ret void
}


!llvm.module.flags = !{!0}
!llvm.ident = !{!1}

!0 = !{i32 1, !"wchar_size", i32 4}
!1 = !{!"clang version 10.0.0-4ubuntu1 "}
