; ModuleID = 'source-C-CXX/24/830.cpp'
source_filename = "source-C-CXX/24/830.cpp"
target datalayout = "e-m:e-p270:32:32-p271:32:32-p272:64:64-i64:64-f80:128-n8:16:32:64-S128"
target triple = "x86_64-pc-linux-gnu"

%"class.std::ios_base::Init" = type { i8 }
%"class.std::basic_ostream" = type { i32 (...)**, %"class.std::basic_ios" }
%"class.std::basic_ios" = type { %"class.std::ios_base", %"class.std::basic_ostream"*, i8, i8, %"class.std::basic_streambuf"*, %"class.std::ctype"*, %"class.std::num_put"*, %"class.std::num_get"* }
%"class.std::ios_base" = type { i32 (...)**, i64, i64, i32, i32, i32, %"struct.std::ios_base::_Callback_list"*, %"struct.std::ios_base::_Words", [8 x %"struct.std::ios_base::_Words"], i32, %"struct.std::ios_base::_Words"*, %"class.std::locale" }
%"struct.std::ios_base::_Callback_list" = type { %"struct.std::ios_base::_Callback_list"*, void (i32, %"class.std::ios_base"*, i32)*, i32, i32 }
%"struct.std::ios_base::_Words" = type { i8*, i64 }
%"class.std::locale" = type { %"class.std::locale::_Impl"* }
%"class.std::locale::_Impl" = type { i32, %"class.std::locale::facet"**, i64, %"class.std::locale::facet"**, i8** }
%"class.std::locale::facet" = type <{ i32 (...)**, i32, [4 x i8] }>
%"class.std::basic_streambuf" = type { i32 (...)**, i8*, i8*, i8*, i8*, i8*, i8*, %"class.std::locale" }
%"class.std::ctype" = type <{ %"class.std::locale::facet.base", [4 x i8], %struct.__locale_struct*, i8, [7 x i8], i32*, i32*, i16*, i8, [256 x i8], [256 x i8], i8, [6 x i8] }>
%"class.std::locale::facet.base" = type <{ i32 (...)**, i32 }>
%struct.__locale_struct = type { [13 x %struct.__locale_data*], i16*, i32*, i32*, [13 x i8*] }
%struct.__locale_data = type opaque
%"class.std::num_put" = type { %"class.std::locale::facet.base", [4 x i8] }
%"class.std::num_get" = type { %"class.std::locale::facet.base", [4 x i8] }
%"class.std::basic_istream" = type { i32 (...)**, i64, %"class.std::basic_ios" }

@_ZStL8__ioinit = internal global %"class.std::ios_base::Init" zeroinitializer, align 1
@__dso_handle = external hidden global i8
@a = dso_local local_unnamed_addr global [100 x i8] zeroinitializer, align 16
@b = dso_local local_unnamed_addr global [100 x i32] zeroinitializer, align 16
@_ZSt4cout = external global %"class.std::basic_ostream", align 8
@_ZSt3cin = external global %"class.std::basic_istream", align 8
@llvm.global_ctors = appending global [1 x { i32, void ()*, i8* }] [{ i32, void ()*, i8* } { i32 65535, void ()* @_GLOBAL__sub_I_830.cpp, i8* null }]

declare void @_ZNSt8ios_base4InitC1Ev(%"class.std::ios_base::Init"* nonnull align 1 dereferenceable(1)) unnamed_addr #0

; Function Attrs: nounwind
declare void @_ZNSt8ios_base4InitD1Ev(%"class.std::ios_base::Init"* nonnull align 1 dereferenceable(1)) unnamed_addr #1

; Function Attrs: nofree nounwind
declare i32 @__cxa_atexit(void (i8*)*, i8*, i8*) local_unnamed_addr #2

; Function Attrs: mustprogress sspstrong uwtable
define dso_local void @_Z1fi(i32 %0) local_unnamed_addr #3 {
  %2 = alloca i8, align 1
  store i8 49, i8* getelementptr inbounds ([100 x i8], [100 x i8]* @a, i64 1, i64 0), align 4, !tbaa !5
  %3 = icmp sgt i32 %0, 0
  br i1 %3, label %4, label %34

4:                                                ; preds = %1, %31
  %5 = phi i32 [ %32, %31 ], [ %0, %1 ]
  br label %6

6:                                                ; preds = %4, %28
  %7 = phi i64 [ 100, %4 ], [ %29, %28 ]
  %8 = getelementptr inbounds [100 x i8], [100 x i8]* @a, i64 0, i64 %7
  %9 = load i8, i8* %8, align 1, !tbaa !5
  %10 = shl i8 %9, 1
  %11 = add i8 %10, -48
  store i8 %11, i8* %8, align 1, !tbaa !5
  %12 = getelementptr inbounds [100 x i32], [100 x i32]* @b, i64 0, i64 %7
  %13 = load i32, i32* %12, align 4, !tbaa !8
  %14 = icmp eq i32 %13, 1
  br i1 %14, label %15, label %17

15:                                               ; preds = %6
  %16 = add i8 %10, -47
  store i8 %16, i8* %8, align 1, !tbaa !5
  br label %17

17:                                               ; preds = %15, %6
  %18 = phi i8 [ %16, %15 ], [ %11, %6 ]
  %19 = icmp sgt i8 %18, 57
  br i1 %19, label %22, label %20

20:                                               ; preds = %17
  %21 = add nsw i64 %7, -1
  br label %28

22:                                               ; preds = %17
  %23 = add nsw i8 %18, -10
  store i8 %23, i8* %8, align 1, !tbaa !5
  %24 = add nsw i64 %7, -1
  %25 = getelementptr inbounds [100 x i32], [100 x i32]* @b, i64 0, i64 %24
  %26 = load i32, i32* %25, align 4, !tbaa !8
  %27 = add nsw i32 %26, 1
  store i32 %27, i32* %25, align 4, !tbaa !8
  br label %28

28:                                               ; preds = %20, %22
  %29 = phi i64 [ %21, %20 ], [ %24, %22 ]
  %30 = icmp eq i64 %7, 0
  br i1 %30, label %31, label %6, !llvm.loop !10

31:                                               ; preds = %28
  tail call void @llvm.memset.p0i8.i64(i8* noundef nonnull align 16 dereferenceable(400) bitcast ([100 x i32]* @b to i8*), i8 0, i64 400, i1 false)
  %32 = add nsw i32 %5, -1
  %33 = icmp sgt i32 %5, 1
  br i1 %33, label %4, label %34, !llvm.loop !12

34:                                               ; preds = %31, %1
  br label %35

35:                                               ; preds = %102, %34
  %36 = phi i64 [ 0, %34 ], [ %103, %102 ]
  %37 = getelementptr inbounds [100 x i8], [100 x i8]* @a, i64 0, i64 %36
  %38 = load i8, i8* %37, align 4, !tbaa !5
  %39 = icmp eq i8 %38, 48
  br i1 %39, label %84, label %40

40:                                               ; preds = %97, %92, %88, %35
  %41 = phi i64 [ %36, %35 ], [ %85, %88 ], [ %93, %92 ], [ %98, %97 ]
  %42 = phi i8 [ %38, %35 ], [ %90, %88 ], [ %95, %92 ], [ %100, %97 ]
  %43 = trunc i64 %41 to i32
  %44 = icmp ult i32 %43, 101
  br i1 %44, label %45, label %56

45:                                               ; preds = %40
  call void @llvm.lifetime.start.p0i8(i64 1, i8* nonnull %2)
  store i8 %42, i8* %2, align 1, !tbaa !5
  %46 = call nonnull align 8 dereferenceable(8) %"class.std::basic_ostream"* @_ZSt16__ostream_insertIcSt11char_traitsIcEERSt13basic_ostreamIT_T0_ES6_PKS3_l(%"class.std::basic_ostream"* nonnull align 8 dereferenceable(8) @_ZSt4cout, i8* nonnull %2, i64 1)
  call void @llvm.lifetime.end.p0i8(i64 1, i8* nonnull %2)
  %47 = add nuw nsw i64 %41, 1
  %48 = icmp eq i64 %47, 101
  br i1 %48, label %56, label %49, !llvm.loop !13

49:                                               ; preds = %45, %49
  %50 = phi i64 [ %54, %49 ], [ %47, %45 ]
  %51 = getelementptr inbounds [100 x i8], [100 x i8]* @a, i64 0, i64 %50
  %52 = load i8, i8* %51, align 1, !tbaa !5
  call void @llvm.lifetime.start.p0i8(i64 1, i8* nonnull %2)
  store i8 %52, i8* %2, align 1, !tbaa !5
  %53 = call nonnull align 8 dereferenceable(8) %"class.std::basic_ostream"* @_ZSt16__ostream_insertIcSt11char_traitsIcEERSt13basic_ostreamIT_T0_ES6_PKS3_l(%"class.std::basic_ostream"* nonnull align 8 dereferenceable(8) @_ZSt4cout, i8* nonnull %2, i64 1)
  call void @llvm.lifetime.end.p0i8(i64 1, i8* nonnull %2)
  %54 = add nuw nsw i64 %50, 1
  %55 = icmp eq i64 %54, 101
  br i1 %55, label %56, label %49, !llvm.loop !13

56:                                               ; preds = %49, %45, %40
  %57 = load i8*, i8** bitcast (%"class.std::basic_ostream"* @_ZSt4cout to i8**), align 8, !tbaa !14
  %58 = getelementptr i8, i8* %57, i64 -24
  %59 = bitcast i8* %58 to i64*
  %60 = load i64, i64* %59, align 8
  %61 = add nsw i64 %60, 240
  %62 = getelementptr inbounds i8, i8* bitcast (%"class.std::basic_ostream"* @_ZSt4cout to i8*), i64 %61
  %63 = bitcast i8* %62 to %"class.std::ctype"**
  %64 = load %"class.std::ctype"*, %"class.std::ctype"** %63, align 8, !tbaa !16
  %65 = icmp eq %"class.std::ctype"* %64, null
  br i1 %65, label %66, label %67

66:                                               ; preds = %56
  call void @_ZSt16__throw_bad_castv() #9
  unreachable

67:                                               ; preds = %56
  %68 = getelementptr inbounds %"class.std::ctype", %"class.std::ctype"* %64, i64 0, i32 8
  %69 = load i8, i8* %68, align 8, !tbaa !20
  %70 = icmp eq i8 %69, 0
  br i1 %70, label %74, label %71

71:                                               ; preds = %67
  %72 = getelementptr inbounds %"class.std::ctype", %"class.std::ctype"* %64, i64 0, i32 9, i64 10
  %73 = load i8, i8* %72, align 1, !tbaa !5
  br label %80

74:                                               ; preds = %67
  call void @_ZNKSt5ctypeIcE13_M_widen_initEv(%"class.std::ctype"* nonnull align 8 dereferenceable(570) %64)
  %75 = bitcast %"class.std::ctype"* %64 to i8 (%"class.std::ctype"*, i8)***
  %76 = load i8 (%"class.std::ctype"*, i8)**, i8 (%"class.std::ctype"*, i8)*** %75, align 8, !tbaa !14
  %77 = getelementptr inbounds i8 (%"class.std::ctype"*, i8)*, i8 (%"class.std::ctype"*, i8)** %76, i64 6
  %78 = load i8 (%"class.std::ctype"*, i8)*, i8 (%"class.std::ctype"*, i8)** %77, align 8
  %79 = call signext i8 %78(%"class.std::ctype"* nonnull align 8 dereferenceable(570) %64, i8 signext 10)
  br label %80

80:                                               ; preds = %71, %74
  %81 = phi i8 [ %73, %71 ], [ %79, %74 ]
  %82 = call nonnull align 8 dereferenceable(8) %"class.std::basic_ostream"* @_ZNSo3putEc(%"class.std::basic_ostream"* nonnull align 8 dereferenceable(8) @_ZSt4cout, i8 signext %81)
  %83 = call nonnull align 8 dereferenceable(8) %"class.std::basic_ostream"* @_ZNSo5flushEv(%"class.std::basic_ostream"* nonnull align 8 dereferenceable(8) %82)
  br label %87

84:                                               ; preds = %35
  %85 = or i64 %36, 1
  %86 = icmp eq i64 %85, 1001
  br i1 %86, label %87, label %88, !llvm.loop !22

87:                                               ; preds = %84, %80
  ret void

88:                                               ; preds = %84
  %89 = getelementptr inbounds [100 x i8], [100 x i8]* @a, i64 0, i64 %85
  %90 = load i8, i8* %89, align 1, !tbaa !5
  %91 = icmp eq i8 %90, 48
  br i1 %91, label %92, label %40

92:                                               ; preds = %88
  %93 = or i64 %36, 2
  %94 = getelementptr inbounds [100 x i8], [100 x i8]* @a, i64 0, i64 %93
  %95 = load i8, i8* %94, align 2, !tbaa !5
  %96 = icmp eq i8 %95, 48
  br i1 %96, label %97, label %40

97:                                               ; preds = %92
  %98 = or i64 %36, 3
  %99 = getelementptr inbounds [100 x i8], [100 x i8]* @a, i64 0, i64 %98
  %100 = load i8, i8* %99, align 1, !tbaa !5
  %101 = icmp eq i8 %100, 48
  br i1 %101, label %102, label %40

102:                                              ; preds = %97
  %103 = add nuw nsw i64 %36, 4
  br label %35
}

; Function Attrs: argmemonly mustprogress nofree nosync nounwind willreturn
declare void @llvm.lifetime.start.p0i8(i64 immarg, i8* nocapture) #4

; Function Attrs: argmemonly mustprogress nofree nounwind willreturn writeonly
declare void @llvm.memset.p0i8.i64(i8* nocapture writeonly, i8, i64, i1 immarg) #5

; Function Attrs: argmemonly mustprogress nofree nosync nounwind willreturn
declare void @llvm.lifetime.end.p0i8(i64 immarg, i8* nocapture) #4

; Function Attrs: mustprogress norecurse sspstrong uwtable
define dso_local i32 @main() local_unnamed_addr #6 {
  %1 = alloca i32, align 4
  %2 = bitcast i32* %1 to i8*
  call void @llvm.lifetime.start.p0i8(i64 4, i8* nonnull %2) #10
  %3 = call nonnull align 8 dereferenceable(16) %"class.std::basic_istream"* @_ZNSirsERi(%"class.std::basic_istream"* nonnull align 8 dereferenceable(16) @_ZSt3cin, i32* nonnull align 4 dereferenceable(4) %1)
  call void @llvm.memset.p0i8.i64(i8* noundef nonnull align 16 dereferenceable(100) getelementptr inbounds ([100 x i8], [100 x i8]* @a, i64 0, i64 0), i8 48, i64 100, i1 false)
  %4 = load i32, i32* %1, align 4, !tbaa !8
  call void @_Z1fi(i32 %4)
  call void @llvm.lifetime.end.p0i8(i64 4, i8* nonnull %2) #10
  ret i32 0
}

declare nonnull align 8 dereferenceable(16) %"class.std::basic_istream"* @_ZNSirsERi(%"class.std::basic_istream"* nonnull align 8 dereferenceable(16), i32* nonnull align 4 dereferenceable(4)) local_unnamed_addr #0

declare nonnull align 8 dereferenceable(8) %"class.std::basic_ostream"* @_ZSt16__ostream_insertIcSt11char_traitsIcEERSt13basic_ostreamIT_T0_ES6_PKS3_l(%"class.std::basic_ostream"* nonnull align 8 dereferenceable(8), i8*, i64) local_unnamed_addr #0

declare nonnull align 8 dereferenceable(8) %"class.std::basic_ostream"* @_ZNSo3putEc(%"class.std::basic_ostream"* nonnull align 8 dereferenceable(8), i8 signext) local_unnamed_addr #0

declare nonnull align 8 dereferenceable(8) %"class.std::basic_ostream"* @_ZNSo5flushEv(%"class.std::basic_ostream"* nonnull align 8 dereferenceable(8)) local_unnamed_addr #0

; Function Attrs: noreturn
declare void @_ZSt16__throw_bad_castv() local_unnamed_addr #7

declare void @_ZNKSt5ctypeIcE13_M_widen_initEv(%"class.std::ctype"* nonnull align 8 dereferenceable(570)) local_unnamed_addr #0

; Function Attrs: sspstrong uwtable
define internal void @_GLOBAL__sub_I_830.cpp() #8 section ".text.startup" {
  tail call void @_ZNSt8ios_base4InitC1Ev(%"class.std::ios_base::Init"* nonnull align 1 dereferenceable(1) @_ZStL8__ioinit)
  %1 = tail call i32 @__cxa_atexit(void (i8*)* bitcast (void (%"class.std::ios_base::Init"*)* @_ZNSt8ios_base4InitD1Ev to void (i8*)*), i8* getelementptr inbounds (%"class.std::ios_base::Init", %"class.std::ios_base::Init"* @_ZStL8__ioinit, i64 0, i32 0), i8* nonnull @__dso_handle) #10
  ret void
}


!llvm.module.flags = !{!0, !1, !2, !3}
!llvm.ident = !{!4}

!0 = !{i32 1, !"wchar_size", i32 4}
!1 = !{i32 7, !"PIC Level", i32 2}
!2 = !{i32 7, !"PIE Level", i32 2}
!3 = !{i32 7, !"uwtable", i32 1}
!4 = !{!"clang version 13.0.0"}
!5 = !{!6, !6, i64 0}
!6 = !{!"omnipotent char", !7, i64 0}
!7 = !{!"Simple C++ TBAA"}
!8 = !{!9, !9, i64 0}
!9 = !{!"int", !6, i64 0}
!10 = distinct !{!10, !11}
!11 = !{!"llvm.loop.mustprogress"}
!12 = distinct !{!12, !11}
!13 = distinct !{!13, !11}
!14 = !{!15, !15, i64 0}
!15 = !{!"vtable pointer", !7, i64 0}
!16 = !{!17, !18, i64 240}
!17 = !{!"_ZTSSt9basic_iosIcSt11char_traitsIcEE", !18, i64 216, !6, i64 224, !19, i64 225, !18, i64 232, !18, i64 240, !18, i64 248, !18, i64 256}
!18 = !{!"any pointer", !6, i64 0}
!19 = !{!"bool", !6, i64 0}
!20 = !{!21, !6, i64 56}
!21 = !{!"_ZTSSt5ctypeIcE", !18, i64 16, !19, i64 24, !18, i64 32, !18, i64 40, !18, i64 48, !6, i64 56, !6, i64 57, !6, i64 313, !6, i64 569}
!22 = distinct !{!22, !11}
